Archive member included because of file (symbol)

c:/program files (x86)/gnu tools arm embedded/4.6 2012q4/bin/../lib/gcc/arm-none-eabi/4.6.2/armv7-m\libgcc.a(_arm_addsubdf3.o)
                              ..\obj\main.o (__aeabi_dadd)
c:/program files (x86)/gnu tools arm embedded/4.6 2012q4/bin/../lib/gcc/arm-none-eabi/4.6.2/armv7-m\libgcc.a(_arm_muldivdf3.o)
                              ..\obj\main.o (__aeabi_dmul)
c:/program files (x86)/gnu tools arm embedded/4.6 2012q4/bin/../lib/gcc/arm-none-eabi/4.6.2/armv7-m\libgcc.a(_arm_truncdfsf2.o)
                              ..\obj\main.o (__aeabi_d2f)
c:/program files (x86)/gnu tools arm embedded/4.6 2012q4/bin/../lib/gcc/arm-none-eabi/4.6.2/armv7-m\libgcc.a(_arm_addsubsf3.o)
                              ..\obj\main.o (__aeabi_i2f)
c:/program files (x86)/gnu tools arm embedded/4.6 2012q4/bin/../lib/gcc/arm-none-eabi/4.6.2/armv7-m\libgcc.a(_arm_fixunssfsi.o)
                              ..\obj\main.o (__aeabi_f2uiz)

Allocating common symbols
Common symbol       size              file

PORTNUM             0x2               ..\obj\main.o
LngY                0x4               ..\obj\main.o
TecPerRas           0x4               ..\obj\main.o
Y_menu2             0x1               ..\obj\main.o
ReadBuf             0x3e8             ..\obj\stm32f10x_RS485Master.o
SaveInt             0x2               ..\obj\main.o
WriteEEP            0x1               ..\obj\main.o
TicVol              0x1               ..\obj\main.o
ProgReset           0x1               ..\obj\main.o
B_video             0x1               ..\obj\main.o
Second              0x1               ..\obj\main.o
chSumUART           0x1               ..\obj\stm32f10x_RS485.o
pGD_ConstMechanic   0x4               ..\obj\main.o
pGD_ConstMechanic_Mech
                    0x4               ..\obj\main.o
nSensAreaNow        0x1               ..\obj\main.o
IntX                0x2               ..\obj\main.o
pSostRS485          0x4               ..\obj\stm32f10x_RS485.o
nSensor             0x1               ..\obj\main.o
fLightPause         0x2               ..\obj\main.o
ToLowTime           0x1               ..\obj\main.o
GLF                 0x4               ..\obj\stm32f10x_RS485Master.o
EthBlock            0x4               ..\obj\main.o
nPortD              0x1               ..\obj\main.o
CalPort             0x1               ..\obj\main.o
Int1Count           0x2               ..\obj\main.o
Sockets             0x64              ..\obj\stm32f10x_RS485.o
PastPerRas          0x4               ..\obj\main.o
NowDayOfWeek        0x1               ..\obj\main.o
nTimer              0x1               ..\obj\main.o
pGD_Strategy_Tepl   0x4               ..\obj\main.o
MACAddr             0x4               ..\obj\main.o
pGD_Hot_Tepl_Kontur
                    0x4               ..\obj\main.o
bNight              0x1               ..\obj\main.o
StatusByte          0x2               ..\obj\stm32f10x_RS485Master.o
pGD_Hot_Tepl        0x4               ..\obj\main.o
FalseIZ             0x1               ..\obj\main.o
RSTime              0x4               ..\obj\stm32f10x_RS485.o
DestSize            0x4               ..\obj\main.o
pNumBlock           0x4               ..\obj\stm32f10x_RS485.o
pBuf                0x4               ..\obj\main.o
nInput              0x1               ..\obj\main.o
MesINT1             0x4               ..\obj\main.o
nNextProgs          0x1               ..\obj\main.o
KeyDelay            0x1               ..\obj\main.o
ipaddr              0x4               ..\obj\main.o
EthSost             0x4               ..\obj\main.o
GLDir               0x1               ..\obj\stm32f10x_RS485Master.o
Sec                 0x1               ..\obj\main.o
ByteZ               0x1               ..\obj\main.o
bOutIPCBlock        0x1               ..\obj\stm32f10x_RS485Master.o
eCS                 0x4               ..\obj\main.o
RegLEV              0x1               ..\obj\main.o
cModule             0x1               ..\obj\stm32f10x_RS485Master.o
B_input             0x1               ..\obj\main.o
MaximVal            0x4               ..\obj\main.o
GlobData            0x2               ..\obj\main.o
pDataRSOUT          0x4               ..\obj\stm32f10x_RS485Master.o
BlkW                0x1               ..\obj\main.o
Int2Count           0x2               ..\obj\main.o
fLightOn            0x1               ..\obj\main.o
PHASE_RS_OUT        0x1               ..\obj\stm32f10x_RS485Master.o
IntCount            0x2               ..\obj\main.o
MinimVal            0x4               ..\obj\main.o
MaskRas             0x1               ..\obj\main.o
IntZ                0x2               ..\obj\main.o
GD                  0x98c9            ..\obj\main.o
TecChan             0x1               ..\obj\main.o
GLCond              0x4               ..\obj\stm32f10x_RS485Master.o
NMinPCOut           0x2               ..\obj\main.o
plen                0x4               ..\obj\main.o
Savebuf             0x4               ..\obj\main.o
RSOutTime           0x4               ..\obj\stm32f10x_RS485Master.o
nSensTeplNow        0x1               ..\obj\main.o
nTypeSens           0x1               ..\obj\main.o
nSensTeplSave       0x1               ..\obj\main.o
pGD_Strategy_Kontur
                    0x4               ..\obj\main.o
nReset              0x1               ..\obj\main.o
AdrEEP              0x2               ..\obj\main.o
ModulData           0x22b0            ..\obj\stm32f10x_RS485Master.o
NDat                0x1               ..\obj\main.o
pGD_TControl_Tepl_Kontur
                    0x4               ..\obj\main.o
ReadyIZ             0x1               ..\obj\main.o
BlockEEP            0x48              ..\obj\main.o
ValSize             0x1               ..\obj\main.o
ByteW               0x1               ..\obj\main.o
pGD_Hot_Hand        0x4               ..\obj\main.o
x_menu              0x1               ..\obj\main.o
pADRGD              0x4               ..\obj\stm32f10x_RS485.o
teplTmes            0x60              ..\obj\main.o
nBlEEP              0x1               ..\obj\main.o
ByteY               0x1               ..\obj\main.o
pGD_TControl_Tepl   0x4               ..\obj\main.o
SendByte1W          0x1               ..\obj\main.o
Rezerv1             0x4               ..\obj\main.o
GLCtr               0x2               ..\obj\stm32f10x_RS485Master.o
CopyVal             0x4               ..\obj\main.o
EndInput            0x1               ..\obj\main.o
dat_p               0x4               ..\obj\main.o
ptrUART             0x4               ..\obj\stm32f10x_RS485.o
ByteX               0x1               ..\obj\main.o
AdrRAM              0x4               ..\obj\main.o
StartY_menu2        0x1               ..\obj\main.o
pGD_Level_Tepl      0x4               ..\obj\main.o
NowCurRow           0x1               ..\obj\main.o
NumBlock            0x1               ..\obj\main.o
DemoMode            0x1               ..\obj\main.o
SIM                 0x1               ..\obj\main.o
Rezerv2             0x4               ..\obj\main.o
vNFCtr              0x1               ..\obj\main.o
fSendByte           0x2               ..\obj\stm32f10x_RS485.o
SizeEEP             0x2               ..\obj\main.o
Volume              0x1               ..\obj\main.o
pNFCtr              0x4               ..\obj\stm32f10x_RS485.o
LngX                0x4               ..\obj\main.o
IntY                0x2               ..\obj\main.o
ncFan               0x1               ..\obj\stm32f10x_RS485Master.o
GrafView            0x1               ..\obj\main.o
nSensTepl           0x1               ..\obj\main.o
fcmd                0x1               ..\obj\main.o
Head                0xa               ..\obj\stm32f10x_RS485.o
bSec                0x1               ..\obj\main.o
cmdval              0x1               ..\obj\main.o
pGD_Hot_Hand_Kontur
                    0x4               ..\obj\main.o
IPAddr              0x4               ..\obj\main.o
pDataRS             0x4               ..\obj\stm32f10x_RS485.o
buf                 0xfa              ..\obj\main.o
nPortSave           0x1               ..\obj\main.o
nSensArea           0x1               ..\obj\main.o
MesINT0             0x2               ..\obj\main.o
GLSize              0x2               ..\obj\stm32f10x_RS485Master.o
nTimer1             0x1               ..\obj\main.o
HeadOUT             0xa               ..\obj\stm32f10x_RS485Master.o
nPort               0x1               ..\obj\main.o
ptrUARTOUT          0x4               ..\obj\stm32f10x_RS485Master.o
Rezerv3             0x4               ..\obj\main.o
DestAdr             0x4               ..\obj\main.o
StartMenuY          0x1               ..\obj\main.o
NewCurRow           0x1               ..\obj\main.o
GLData              0x4               ..\obj\stm32f10x_RS485Master.o
fAdrSend            0x2               ..\obj\stm32f10x_RS485.o
fstr                0x1e              ..\obj\main.o
NumIzm              0x1               ..\obj\main.o
MBusy               0x4               ..\obj\main.o
TimeReset           0x1               ..\obj\main.o
bWaterReset         0x10              ..\obj\main.o
AdrGD               0x5a              ..\obj\main.o
cOperInModule       0x1               ..\obj\stm32f10x_RS485Master.o
nNextSensor         0x1               ..\obj\main.o
SaveSample          0x4               ..\obj\main.o
nProgs              0x1               ..\obj\main.o
ToHiTime            0x1               ..\obj\main.o
Buf1W               0xa               ..\obj\main.o
pGD_MechConfig_Kontur
                    0x4               ..\obj\main.o
IWDG_Reset          0x4               ..\obj\main.o
cCycle              0x1               ..\obj\stm32f10x_RS485Master.o
PHASE_RS            0x1               ..\obj\stm32f10x_RS485.o
Int3Count           0x2               ..\obj\main.o
SaveChar            0x1               ..\obj\main.o
PORTNUMBER          0x4               ..\obj\main.o
BITKL               0x1               ..\obj\main.o
SumYMenu            0x1               ..\obj\main.o
SaveInt2            0x2               ..\obj\main.o
Menu                0x1               ..\obj\main.o
Y_menu              0x1               ..\obj\main.o
AdrVal              0x4               ..\obj\main.o
OutR                0xb               ..\obj\main.o
nInputD             0x1               ..\obj\main.o
pGD_MechConfig      0x4               ..\obj\main.o
pGD_Control_Tepl    0x4               ..\obj\main.o
chSumUARTOUT        0x1               ..\obj\stm32f10x_RS485Master.o

Discarded input sections

 .data          0x00000000        0x0 ..\obj\startup_stm32f10x_cl.o
 .bss           0x00000000        0x0 ..\obj\startup_stm32f10x_cl.o
 .text          0x00000000      0xfd4 ..\obj\stm32f10x_tim.o
 .data          0x00000000        0x0 ..\obj\stm32f10x_tim.o
 .bss           0x00000000        0x0 ..\obj\stm32f10x_tim.o
 .data          0x00000000        0x0 ..\obj\misc.o
 .bss           0x00000000        0x0 ..\obj\misc.o
 .data          0x00000000        0x0 ..\obj\stm32f10x_iwdg.o
 .bss           0x00000000        0x0 ..\obj\stm32f10x_iwdg.o
 .data          0x00000000        0x0 ..\obj\stm32f10x_spi.o
 .bss           0x00000000        0x0 ..\obj\stm32f10x_spi.o
 .text          0x00000000       0xa4 ..\obj\core_cm3.o
 .data          0x00000000        0x0 ..\obj\core_cm3.o
 .bss           0x00000000        0x0 ..\obj\core_cm3.o
 .data          0x00000000        0x0 ..\obj\stm32f10x_RS485Master.o
 .bss           0x00000000        0x0 ..\obj\stm32f10x_RS485Master.o
 .data          0x00000000        0x0 ..\obj\stm32f10x_RS485.o
 .bss           0x00000000        0x0 ..\obj\stm32f10x_RS485.o
 .data          0x00000000        0x0 ..\obj\stm32f10x_usart.o
 .bss           0x00000000        0x0 ..\obj\stm32f10x_usart.o
 .data          0x00000000        0x0 ..\obj\stm32f10x_bkp.o
 .bss           0x00000000        0x0 ..\obj\stm32f10x_bkp.o
 .data          0x00000000        0x0 ..\obj\stm32f10x_pwr.o
 .bss           0x00000000        0x0 ..\obj\stm32f10x_pwr.o
 .data          0x00000000        0x0 ..\obj\stm32f10x_gpio.o
 .bss           0x00000000        0x0 ..\obj\stm32f10x_gpio.o
 .bss           0x00000000        0x0 ..\obj\system_stm32f10x.o
 .data          0x00000000        0x0 ..\obj\stm32f10x_exti.o
 .bss           0x00000000        0x0 ..\obj\stm32f10x_exti.o
 .bss           0x00000000        0x0 ..\obj\stm32f10x_rcc.o
 .data          0x00000000        0x0 ..\obj\I2CSoft.o
 .bss           0x00000000        0x0 ..\obj\I2CSoft.o
 .text          0x00000000      0x274 ..\obj\stm32f10x_dma.o
 .data          0x00000000        0x0 ..\obj\stm32f10x_dma.o
 .bss           0x00000000        0x0 ..\obj\stm32f10x_dma.o
 .data          0x00000000        0x0 ..\obj\stm32f10x__clock.o
 .bss           0x00000000        0x0 ..\obj\stm32f10x__clock.o
 .text          0x00000000      0x4ac ..\obj\stm32f10x_i2c.o
 .data          0x00000000        0x0 ..\obj\stm32f10x_i2c.o
 .bss           0x00000000        0x0 ..\obj\stm32f10x_i2c.o
 .data          0x00000000        0x0 ..\obj\stm32f10x_rtc.o
 .bss           0x00000000        0x0 ..\obj\stm32f10x_rtc.o
 .data          0x00000000        0x0 c:/program files (x86)/gnu tools arm embedded/4.6 2012q4/bin/../lib/gcc/arm-none-eabi/4.6.2/armv7-m\libgcc.a(_arm_addsubdf3.o)
 .bss           0x00000000        0x0 c:/program files (x86)/gnu tools arm embedded/4.6 2012q4/bin/../lib/gcc/arm-none-eabi/4.6.2/armv7-m\libgcc.a(_arm_addsubdf3.o)
 .data          0x00000000        0x0 c:/program files (x86)/gnu tools arm embedded/4.6 2012q4/bin/../lib/gcc/arm-none-eabi/4.6.2/armv7-m\libgcc.a(_arm_muldivdf3.o)
 .bss           0x00000000        0x0 c:/program files (x86)/gnu tools arm embedded/4.6 2012q4/bin/../lib/gcc/arm-none-eabi/4.6.2/armv7-m\libgcc.a(_arm_muldivdf3.o)
 .data          0x00000000        0x0 c:/program files (x86)/gnu tools arm embedded/4.6 2012q4/bin/../lib/gcc/arm-none-eabi/4.6.2/armv7-m\libgcc.a(_arm_truncdfsf2.o)
 .bss           0x00000000        0x0 c:/program files (x86)/gnu tools arm embedded/4.6 2012q4/bin/../lib/gcc/arm-none-eabi/4.6.2/armv7-m\libgcc.a(_arm_truncdfsf2.o)
 .data          0x00000000        0x0 c:/program files (x86)/gnu tools arm embedded/4.6 2012q4/bin/../lib/gcc/arm-none-eabi/4.6.2/armv7-m\libgcc.a(_arm_addsubsf3.o)
 .bss           0x00000000        0x0 c:/program files (x86)/gnu tools arm embedded/4.6 2012q4/bin/../lib/gcc/arm-none-eabi/4.6.2/armv7-m\libgcc.a(_arm_addsubsf3.o)
 .data          0x00000000        0x0 c:/program files (x86)/gnu tools arm embedded/4.6 2012q4/bin/../lib/gcc/arm-none-eabi/4.6.2/armv7-m\libgcc.a(_arm_fixunssfsi.o)
 .bss           0x00000000        0x0 c:/program files (x86)/gnu tools arm embedded/4.6 2012q4/bin/../lib/gcc/arm-none-eabi/4.6.2/armv7-m\libgcc.a(_arm_fixunssfsi.o)

Memory Configuration

Name             Origin             Length             Attributes
rom              0x08000000         0x00040000         xr
ram              0x20000000         0x00010000         xrw
*default*        0x00000000         0xffffffff

Linker script and memory map

                0x20010000                _eram = 0x20010000

.text           0x08000000    0x13f90
 *(.isr_vector)
 .isr_vector    0x08000000      0x154 ..\obj\startup_stm32f10x_cl.o
                0x08000000                g_pfnVectors
 *(.text*)
 .text          0x08000154       0x60 ..\obj\startup_stm32f10x_cl.o
                0x08000154                Default_Reset_Handler
                0x08000154                Reset_Handler
                0x080001a8                TIM1_CC_IRQHandler
                0x080001a8                HardFault_Handler
                0x080001a8                TIM6_IRQHandler
                0x080001a8                SysTick_Handler
                0x080001a8                PVD_IRQHandler
                0x080001a8                PendSV_Handler
                0x080001a8                NMI_Handler
                0x080001a8                CAN2_RX1_IRQHandler
                0x080001a8                EXTI3_IRQHandler
                0x080001a8                EXTI0_IRQHandler
                0x080001a8                DebugMon_Handler
                0x080001a8                CAN1_RX0_IRQHandler
                0x080001a8                UsageFault_Handler
                0x080001a8                CAN2_SCE_IRQHandler
                0x080001a8                ADC1_2_IRQHandler
                0x080001a8                SPI1_IRQHandler
                0x080001a8                TAMPER_IRQHandler
                0x080001a8                CAN2_RX0_IRQHandler
                0x080001a8                DMA2_Channel2_IRQHandler
                0x080001a8                DMA1_Channel4_IRQHandler
                0x080001a8                USART3_IRQHandler
                0x080001a8                DMA1_Channel7_IRQHandler
                0x080001a8                I2C2_EV_IRQHandler
                0x080001a8                CAN1_RX1_IRQHandler
                0x080001a8                UART5_IRQHandler
                0x080001a8                TIM4_IRQHandler
                0x080001a8                DMA2_Channel1_IRQHandler
                0x080001a8                I2C1_EV_IRQHandler
                0x080001a8                DMA1_Channel6_IRQHandler
                0x080001a8                DMA2_Channel4_IRQHandler
                0x080001a8                RCC_IRQHandler
                0x080001a8                TIM1_TRG_COM_IRQHandler
                0x080001a8                DMA1_Channel1_IRQHandler
                0x080001a8                EXTI15_10_IRQHandler
                0x080001a8                EXTI2_IRQHandler
                0x080001a8                TIM7_IRQHandler
                0x080001a8                CAN2_TX_IRQHandler
                0x080001a8                TIM5_IRQHandler
                0x080001a8                ETH_WKUP_IRQHandler
                0x080001a8                SPI2_IRQHandler
                0x080001a8                MemManage_Handler
                0x080001a8                CAN1_TX_IRQHandler
                0x080001a8                SVC_Handler
                0x080001a8                DMA2_Channel5_IRQHandler
                0x080001a8                DMA1_Channel5_IRQHandler
                0x080001a8                EXTI4_IRQHandler
                0x080001a8                DMA1_Channel3_IRQHandler
                0x080001a8                ETH_IRQHandler
                0x080001a8                TIM1_UP_IRQHandler
                0x080001a8                WWDG_IRQHandler
                0x080001a8                OTG_FS_WKUP_IRQHandler
                0x080001a8                TIM1_BRK_IRQHandler
                0x080001a8                EXTI1_IRQHandler
                0x080001a8                RTCAlarm_IRQHandler
                0x080001a8                USART2_IRQHandler
                0x080001a8                I2C2_ER_IRQHandler
                0x080001a8                DMA1_Channel2_IRQHandler
                0x080001a8                CAN1_SCE_IRQHandler
                0x080001a8                FLASH_IRQHandler
                0x080001a8                BusFault_Handler
                0x080001a8                OTG_FS_IRQHandler
                0x080001a8                SPI3_IRQHandler
                0x080001a8                I2C1_ER_IRQHandler
                0x080001a8                DMA2_Channel3_IRQHandler
 .text          0x080001b4       0xf0 ..\obj\misc.o
                0x080001b4                NVIC_PriorityGroupConfig
                0x080001c8                NVIC_Init
                0x0800024c                NVIC_SetVectorTable
                0x08000264                NVIC_SystemLPConfig
                0x08000288                SysTick_CLKSourceConfig
 .text          0x080002a4       0x58 ..\obj\stm32f10x_iwdg.o
                0x080002a4                IWDG_WriteAccessCmd
                0x080002b0                IWDG_SetPrescaler
                0x080002bc                IWDG_SetReload
                0x080002c8                IWDG_ReloadCounter
                0x080002d8                IWDG_Enable
                0x080002e8                IWDG_GetFlagStatus
 .text          0x080002fc      0x3f0 ..\obj\stm32f10x_spi.o
                0x080002fc                SPI_I2S_DeInit
                0x08000370                SPI_Init
                0x080003b4                I2S_Init
                0x080004fc                SPI_StructInit
                0x08000518                I2S_StructInit
                0x08000530                SPI_Cmd
                0x08000550                I2S_Cmd
                0x08000570                SPI_I2S_ITConfig
                0x08000598                SPI_I2S_DMACmd
                0x080005b0                SPI_I2S_SendData
                0x080005b4                SPI_I2S_ReceiveData
                0x080005bc                SPI_NSSInternalSoftwareConfig
                0x080005e4                SPI_SSOutputCmd
                0x08000604                SPI_DataSizeConfig
                0x08000620                SPI_TransmitCRC
                0x0800062c                SPI_CalculateCRC
                0x0800064c                SPI_GetCRC
                0x0800065c                SPI_GetCRCPolynomial
                0x08000664                SPI_BiDirectionalLineConfig
                0x08000688                SPI_I2S_GetFlagStatus
                0x08000694                SPI_I2S_ClearFlag
                0x080006a0                SPI_I2S_GetITStatus
                0x080006d4                SPI_I2S_ClearITPendingBit
 .text          0x080006ec     0x1570 ..\obj\stm32f10x_RS485Master.o
                0x080006ec                ResMod
                0x08000700                CpyBuf
                0x08000720                NoSameBuf
                0x08000764                USART_OUT_Configuration
                0x08000860                UART4_IRQHandler
                0x08000c64                RS485_Master_ExchangeDataIRQ
                0x08000d74                RS485_Master_WriteDataIRQ
                0x08000d94                RS485_Master_ReadDataIRQ
                0x08000db4                RS485_Master_InitTransmit
                0x08000f34                RS485_Master_WriteData
                0x080010a0                RS485_Master_ReadData
                0x08001194                RS485_Master_ReadType
                0x080011b0                GetIPCComMod
                0x080011c4                GetIPCNum
                0x080011e0                ClrAllOutIPCDigit
                0x0800124c                ResumeOutIPCDigit
                0x0800125c                SetOutIPCDigit
                0x08001318                SetOutIPCReg
                0x080013c4                GetOutIPCDigit
                0x08001460                GetInIPC
                0x08001510                GetDiskrIPC
                0x080015ec                UpdateInIPC
                0x080016d4                ModStatus
                0x08001714                IMOD_Exchange
                0x080018b4                SendIPC
 .text          0x08001c5c      0x574 ..\obj\stm32f10x_RS485.o
                0x08001c5c                CheckRSTime
                0x08001cb8                USART1_IRQHandler
                0x080020ac                USART_PC_Configuration
 .text          0x080021d0      0x4bc ..\obj\stm32f10x_usart.o
                0x080021d0                USART_DeInit
                0x08002290                USART_Init
                0x08002388                USART_StructInit
                0x080023a4                USART_ClockInit
                0x080023cc                USART_ClockStructInit
                0x080023dc                USART_Cmd
                0x080023fc                USART_ITConfig
                0x08002438                USART_DMACmd
                0x08002450                USART_SetAddress
                0x0800246c                USART_WakeUpConfig
                0x08002488                USART_ReceiverWakeUpCmd
                0x080024a8                USART_LINBreakDetectLengthConfig
                0x080024c4                USART_LINCmd
                0x080024e4                USART_SendData
                0x080024f0                USART_ReceiveData
                0x080024fc                USART_SendBreak
                0x08002508                USART_SetGuardTime
                0x0800251c                USART_SetPrescaler
                0x08002530                USART_SmartCardCmd
                0x08002550                USART_SmartCardNACKCmd
                0x08002570                USART_HalfDuplexCmd
                0x08002590                USART_OverSampling8Cmd
                0x080025b0                USART_OneBitMethodCmd
                0x080025d0                USART_IrDAConfig
                0x080025ec                USART_IrDACmd
                0x0800260c                USART_GetFlagStatus
                0x08002618                USART_ClearFlag
                0x08002624                USART_GetITStatus
                0x08002674                USART_ClearITPendingBit
 .text          0x0800268c       0xfc ..\obj\stm32f10x_bkp.o
                0x0800268c                BKP_DeInit
                0x080026a0                BKP_TamperPinLevelConfig
                0x080026ac                BKP_TamperPinCmd
                0x080026b8                BKP_ITConfig
                0x080026c4                BKP_RTCOutputConfig
                0x080026e0                BKP_SetRTCCalibrationValue
                0x080026fc                BKP_WriteBackupRegister
                0x0800271c                BKP_ReadBackupRegister
                0x08002740                BKP_GetFlagStatus
                0x08002750                BKP_ClearFlag
                0x08002764                BKP_GetITStatus
                0x08002774                BKP_ClearITPendingBit
 .text          0x08002788       0xe8 ..\obj\stm32f10x_pwr.o
                0x08002788                PWR_DeInit
                0x080027a4                PWR_BackupAccessCmd
                0x080027b0                PWR_PVDCmd
                0x080027bc                PWR_PVDLevelConfig
                0x080027d0                PWR_WakeUpPinCmd
                0x080027dc                PWR_EnterSTOPMode
                0x0800281c                PWR_EnterSTANDBYMode
                0x08002848                PWR_GetFlagStatus
                0x0800285c                PWR_ClearFlag
 .text          0x08002870      0x34c ..\obj\stm32f10x_gpio.o
                0x08002870                GPIO_DeInit
                0x0800297c                GPIO_AFIODeInit
                0x08002998                GPIO_Init
                0x08002a58                GPIO_StructInit
                0x08002a6c                GPIO_ReadInputDataBit
                0x08002a78                GPIO_ReadInputData
                0x08002a80                GPIO_ReadOutputDataBit
                0x08002a8c                GPIO_ReadOutputData
                0x08002a94                GPIO_SetBits
                0x08002a98                GPIO_ResetBits
                0x08002a9c                GPIO_WriteBit
                0x08002aa8                GPIO_Write
                0x08002aac                GPIO_PinLockConfig
                0x08002abc                GPIO_EventOutputConfig
                0x08002adc                GPIO_EventOutputCmd
                0x08002ae8                GPIO_PinRemapConfig
                0x08002b70                GPIO_EXTILineConfig
                0x08002bb0                GPIO_ETH_MediaInterfaceConfig
 .text          0x08002bbc      0x29c ..\obj\system_stm32f10x.o
                0x08002bbc                SystemInit
                0x08002d30                SystemCoreClockUpdate
 .text          0x08002e58      0x124 ..\obj\stm32f10x_exti.o
                0x08002e58                EXTI_DeInit
                0x08002e78                EXTI_Init
                0x08002f0c                EXTI_StructInit
                0x08002f20                EXTI_GenerateSWInterrupt
                0x08002f30                EXTI_GetFlagStatus
                0x08002f44                EXTI_ClearFlag
                0x08002f50                EXTI_GetITStatus
                0x08002f70                EXTI_ClearITPendingBit
 .text          0x08002f7c      0x53c ..\obj\stm32f10x_rcc.o
                0x08002f7c                RCC_DeInit
                0x08002fcc                RCC_HSEConfig
                0x08003018                RCC_AdjustHSICalibrationValue
                0x08003030                RCC_HSICmd
                0x0800303c                RCC_PLLConfig
                0x08003054                RCC_PLLCmd
                0x08003060                RCC_PREDIV1Config
                0x0800307c                RCC_PREDIV2Config
                0x08003090                RCC_PLL2Config
                0x080030a4                RCC_PLL2Cmd
                0x080030b0                RCC_PLL3Config
                0x080030c4                RCC_PLL3Cmd
                0x080030d0                RCC_SYSCLKConfig
                0x080030e4                RCC_GetSYSCLKSource
                0x080030f4                RCC_HCLKConfig
                0x08003108                RCC_PCLK1Config
                0x0800311c                RCC_PCLK2Config
                0x08003134                RCC_ITConfig
                0x08003158                RCC_OTGFSCLKConfig
                0x08003164                RCC_ADCCLKConfig
                0x08003178                RCC_I2S2CLKConfig
                0x08003184                RCC_I2S3CLKConfig
                0x08003190                RCC_LSEConfig
                0x080031cc                RCC_LSICmd
                0x080031d8                RCC_RTCCLKConfig
                0x080031e8                RCC_RTCCLKCmd
                0x080031f4                RCC_GetClocksFreq
                0x08003318                RCC_AHBPeriphClockCmd
                0x0800333c                RCC_APB2PeriphClockCmd
                0x08003360                RCC_APB1PeriphClockCmd
                0x08003384                RCC_AHBPeriphResetCmd
                0x080033a8                RCC_APB2PeriphResetCmd
                0x080033cc                RCC_APB1PeriphResetCmd
                0x080033f0                RCC_BackupResetCmd
                0x080033fc                RCC_ClockSecuritySystemCmd
                0x08003408                RCC_MCOConfig
                0x08003414                RCC_GetFlagStatus
                0x08003448                RCC_WaitForHSEStartUp
                0x08003484                RCC_ClearFlag
                0x08003498                RCC_GetITStatus
                0x080034ac                RCC_ClearITPendingBit
 .text          0x080034b8      0x328 ..\obj\I2CSoft.o
                0x080034b8                i2_fm_Init
                0x08003500                i2_Start
                0x0800351c                i2_Stop
                0x08003534                i2_ToSDA
                0x08003558                i2_SetASK
                0x08003598                i2_GetASK
                0x080035f4                i2_WriteByte
                0x08003634                i2_ReadByte
                0x08003694                fm_Read
                0x08003750                fm_Write
 .text          0x080037e0      0x2d4 ..\obj\stm32f10x__clock.o
                0x08003918                ReadDateTime
                0x080039a4                WriteDateTime
 .text          0x08003ab4      0x188 ..\obj\stm32f10x_rtc.o
                0x08003ab4                RTC_ITConfig
                0x08003adc                RTC_EnterConfigMode
                0x08003af0                RTC_ExitConfigMode
                0x08003b0c                RTC_GetCounter
                0x08003b20                RTC_SetCounter
                0x08003b40                RTC_SetPrescaler
                0x08003b60                RTC_SetAlarm
                0x08003b80                RTC_GetDivider
                0x08003b98                RTC_WaitForLastTask
                0x08003bac                RTC_WaitForSynchro
                0x08003bd8                RTC_GetFlagStatus
                0x08003bec                RTC_ClearFlag
                0x08003c00                RTC_GetITStatus
                0x08003c28                RTC_ClearITPendingBit
 *fill*         0x08003c3c        0x4 00
 .text          0x08003c40     0xe518 ..\obj\main.o
                0x08003c40                Init_MEAS_INPUT
                0x08003cf8                InitBlockEEP
                0x08003db4                ButtonReset
                0x08003ebc                MemClr
                0x08003ed4                MemCopy
                0x08003eec                CalcRAMSum
                0x08003f34                getTempSensor
                0x08003f98                getTempVent
                0x080040c0                getTempHeat
                0x080041ec                getTempVentAlarm
                0x08004254                getTempHeatAlarm
                0x080042bc                SameSign
                0x080042dc                SetPointersOnTepl
                0x080043b0                SetDiskrSens
                0x08004420                InitGD
                0x08004884                SetPointersOnKontur
                0x08004928                MidlWindAndSr
                0x080049fc                CheckMidlSr
                0x08004a64                abs
                0x08004a6c                ogrMin
                0x08004a78                ogrMax
                0x08004a84                CheckSeparate
                0x08004b04                CheckMain
                0x08004b40                SetResRam
                0x08004b54                CorrectionRule
                0x08004ba8                AbsHum
                0x08004cd8                RelHum
                0x08004e10                KeepPID
                0x08004e8c                SetPID
                0x08004fcc                WindDirect
                0x080050e8                SetRelay
                0x08005134                ClrRelay
                0x0800517c                TestRelay
                0x080051c8                __SetBitOutReg
                0x08005254                SetValue
                0x0800528c                w_txt
                0x080052f0                w_int
                0x08005ad8                CheckModeScreen
                0x08005ed8                InitScreen
                0x08005f40                SetPosScreen
                0x080060f0                LaunchVent
                0x080060f4                LaunchCalorifer
                0x080060f8                SetReg
                0x08006364                RegWorkDiskr
                0x0800643c                DefRH
                0x0800646c                DefOutAbsHum
                0x080064a0                DefAbsHum
                0x080064d4                SetNoWorkKontur
                0x080064fc                __sMinMaxWater
                0x08006710                CheckScreenSystem
                0x080067c0                CheckAHUPipeSystem
                0x080068b0                CheckUCValveSystem
                0x080069a0                CheckMistSystem
                0x08006ab4                SysInTemp
                0x08006b08                MaxSysInTemp
                0x08006b58                FinalCheckSys
                0x08006bd0                valveSetOldPos
                0x08006bec                valveGetOldPos
                0x08006bf8                KeepUCValve
                0x08006cc0                KeepFanSystem
                0x08006ce0                KeepScreenSystem
                0x08006cf8                KeepMistSystem
                0x08006d08                KeepAHUPipeSystem
                0x08006d18                CheckFanSystem
                0x08006e54                SetPrioritySystem
                0x08006ec8                PutCritery
                0x08007014                GetOffSet
                0x0800704c                TakeForSys
                0x08007170                __MechToVentTemp
                0x080071a4                __MaxMechToVentTemp
                0x080071c8                __sMinMaxWindows
                0x0800754c                __sInitKontur
                0x080077d4                __sRegulKontur
                0x08007924                __sPotentialPosibilityKontur
                0x08007a30                __WorkableKontur
                0x08007cd8                __sRealPosibilityKonturs
                0x08007e1c                __sRaspKontur
                0x08007e84                __sRaspOwnKontur
                0x08007ee4                __TempToVent1
                0x08007f2c                __VentToTemp1
                0x08007f7c                __sLastCheckWindow
                0x08007fa8                __sThisToFirst
                0x08007fd0                __sLastCheckKontur
                0x08008150                __sCalcTempKonturs
                0x080081ec                __sCalcKonturs
                0x080089f0                __sMechScreen
                0x08008a44                __SetIntWin
                0x08008b1c                __SetWinPress
                0x08008bb8                __SetPad
                0x08008c1c                __sMechWindows
                0x08008d70                DecPumpPause
                0x08008de4                SetUpSiod
                0x08009028                DoSiod
                0x08009180                JumpNext
                0x080091d0                TaskTimer
                0x0800954c                AllTaskAndCorrection
                0x080099c0                SetIfReset
                0x08009a08                __cNextTCalc
                0x0800a0bc                SetMixValvePosition
                0x0800a190                DoPumps
                0x0800a1f0                DoVentCalorifer
                0x0800a1f4                DoLights
                0x0800a21c                SetSensOnMech
                0x0800a290                ClearAllAlarms
                0x0800a2f8                SetAlarm
                0x0800a4a8                SetDiskr
                0x0800a918                DoMechanics
                0x0800ae80                SetMeteo
                0x0800b00c                SetLighting
                0x0800b184                SetTepl
                0x0800b270                SubConfig
                0x0800b3a8                Configuration
                0x0800b3c0                pmInfoProg405
                0x0800b604                pmStrategy
                0x0800b76c                AutoMan
                0x0800b788                pmHand
                0x0800bc2c                pmParMechanic
                0x0800be7c                pmNow
                0x0800c3d0                pmProgClimate
                0x0800c5f8                pmVersion
                0x0800c6b0                LCD_CTRL_DIR_OUT
                0x0800c6f0                LCD_DATA_DIR_IN
                0x0800c734                LCD_DATA_DIR_OUT
                0x0800c778                LCD_DATA_IN
                0x0800c794                LCD_DATA_OUT
                0x0800c7c0                Delay
                0x0800c7dc                ReadStatus
                0x0800c83c                SendCmd
                0x0800c878                SendByte
                0x0800c8b4                Send2
                0x0800c8f4                SendBlock
                0x0800c964                SendBlockPM
                0x0800c9d4                SendSim
                0x0800ca44                IniLCDMem
                0x0800cab8                InitLCD
                0x0800cb0c                clear_d
                0x0800cb34                TimeToBuf
                0x0800cbc0                VideoSost
                0x0800cc0c                SendFirstScreen
                0x0800cc9c                ClearGraf
                0x0800cd04                Video
                0x0800cdb0                Keyboard_Init
                0x0800ce10                CheckKeyboardSTM
                0x0800cef0                InitIPCTimer
                0x0800cf50                InitMainTimer
                0x0800cfac                TIM2_IRQHandler
                0x0800cfc0                InitRTC
                0x0800d09c                RTC_IRQHandler
                0x0800d0d4                w1Init
                0x0800d104                w1reset
                0x0800d19c                w1_check
                0x0800d28c                w1_wr
                0x0800d2f4                ds18b20_ConvertTemp
                0x0800d318                ds18b20_WriteROM
                0x0800d368                ds18b20_FillReg
                0x0800d3a0                w1_rd
                0x0800d470                CrcCalc
                0x0800d4d0                ds18b20_ReadTemp
                0x0800d544                ds18b20_ReadROM
                0x0800d5c4                DigitSens
                0x0800d6d8                Reg48ToI2C
                0x0800d6e8                TIM3_IRQHandler
                0x0800d700                OutReg
                0x0800d704                SendBlockFRAM
                0x0800d780                ReWriteFRAM
                0x0800d7fc                SetInSaveRam
                0x0800d8d4                pmCalibr
                0x0800def0                in_val
                0x0800e518                KeyBoard
                0x0800e7d8                RecvBlockFRAM
                0x0800e854                TestFRAM
                0x0800e914                pmReset
                0x0800eaf4                TestRAM
                0x0800eb50                TestRAM0
                0x0800eb84                WriteToFRAM
                0x0800ebd4                ReadFromFRAM
                0x0800ec1c                SetRTC
                0x0800ec88                pmDate
                0x0800eec8                pmParam
                0x0800f9d4                YMenu
                0x0800fa54                GMenu
                0x0800fc58                GetRTC
                0x0800fcac                TestMem
                0x0800fd28                Control
                0x080103d0                CopyEEP
                0x080103d4                CalcEEPSum
                0x080103d8                EXTI9_5_IRQHandler
                0x08010400                Init_IWDG
                0x0801042c                Check_IWDG
                0x08010440                CheckDigitMidl
                0x0801047c                CheckSensLevsNew
                0x08010758                CalibrNew
                0x08010878                Measure
                0x08010a08                CheckInputConfig
                0x08010b24                SPI1_Init
                0x08010bf0                SPI1_ReadWrite
                0x08010c44                enc28j60ReadOp
                0x08010c9c                enc28j60WriteOp
                0x08010cdc                enc28j60ReadBuffer
                0x08010d40                enc28j60WriteBuffer
                0x08010d8c                enc28j60SetBank
                0x08010dd0                enc28j60Read
                0x08010de4                enc28j60Write
                0x08010dfc                enc28j60PhyWrite
                0x08010e48                enc28j60clkout
                0x08010e58                enc28j60Init
                0x08011018                enc28j60getrev
                0x08011024                enc28j60PacketSend
                0x080110ac                enc28j60PacketReceive
                0x08011194                checksum
                0x080111f8                init_ip_arp_udp_tcp
                0x08011230                eth_type_is_arp_and_my_ip
                0x0801129c                eth_type_is_ip_and_my_ip
                0x08011310                make_eth
                0x0801133c                fill_ip_hdr_checksum
                0x08011368                make_ip
                0x08011398                check_ip_scr
                0x080113d0                make_tcphead
                0x08011498                make_arp_answer_from_request
                0x08011504                make_echo_reply_from_request
                0x08011544                make_udp_reply_from_request
                0x080115d0                make_tcp_synack_from_syn
                0x08011628                get_tcp_data_pointer
                0x0801164c                init_len_info
                0x08011674                fill_tcp_data_p
                0x08011698                fill_tcp_data
                0x080116bc                fill_tcp_buf
                0x080116d8                make_tcp_ack_from_any
                0x08011750                make_tcp_ack_with_data
                0x080117c8                BufCpy
                0x080117d8                analyse_get_url
                0x080117e0                SocketUpdate
                0x08011a48                simple_servercycle
                0x08011c74                simple_server
                0x08011d00                Init_STM32
                0x08011e1c                CheckWithoutPC
                0x08011eb8                main
 .text          0x08012158      0x370 c:/program files (x86)/gnu tools arm embedded/4.6 2012q4/bin/../lib/gcc/arm-none-eabi/4.6.2/armv7-m\libgcc.a(_arm_addsubdf3.o)
                0x08012158                __aeabi_drsub
                0x08012160                __aeabi_dsub
                0x08012160                __subdf3
                0x08012164                __aeabi_dadd
                0x08012164                __adddf3
                0x080123dc                __floatunsidf
                0x080123dc                __aeabi_ui2d
                0x080123fc                __floatsidf
                0x080123fc                __aeabi_i2d
                0x08012420                __aeabi_f2d
                0x08012420                __extendsfdf2
                0x0801245c                __floatundidf
                0x0801245c                __aeabi_ul2d
                0x0801246c                __floatdidf
                0x0801246c                __aeabi_l2d
 .text          0x080124c8      0x424 c:/program files (x86)/gnu tools arm embedded/4.6 2012q4/bin/../lib/gcc/arm-none-eabi/4.6.2/armv7-m\libgcc.a(_arm_muldivdf3.o)
                0x080124c8                __aeabi_dmul
                0x080124c8                __muldf3
                0x0801271c                __divdf3
                0x0801271c                __aeabi_ddiv
 .text          0x080128ec       0xa0 c:/program files (x86)/gnu tools arm embedded/4.6 2012q4/bin/../lib/gcc/arm-none-eabi/4.6.2/armv7-m\libgcc.a(_arm_truncdfsf2.o)
                0x080128ec                __truncdfsf2
                0x080128ec                __aeabi_d2f
 .text          0x0801298c      0x21c c:/program files (x86)/gnu tools arm embedded/4.6 2012q4/bin/../lib/gcc/arm-none-eabi/4.6.2/armv7-m\libgcc.a(_arm_addsubsf3.o)
                0x0801298c                __aeabi_frsub
                0x08012994                __subsf3
                0x08012994                __aeabi_fsub
                0x08012998                __aeabi_fadd
                0x08012998                __addsf3
                0x08012af8                __aeabi_ui2f
                0x08012af8                __floatunsisf
                0x08012b00                __aeabi_i2f
                0x08012b00                __floatsisf
                0x08012b1c                __aeabi_ul2f
                0x08012b1c                __floatundisf
                0x08012b2c                __aeabi_l2f
                0x08012b2c                __floatdisf
 .text          0x08012ba8       0x40 c:/program files (x86)/gnu tools arm embedded/4.6 2012q4/bin/../lib/gcc/arm-none-eabi/4.6.2/armv7-m\libgcc.a(_arm_fixunssfsi.o)
                0x08012ba8                __fixunssfsi
                0x08012ba8                __aeabi_f2uiz
 *(.init)
 *(.fini)
 *crtbegin.o(.ctors)
 *crtbegin?.o(.ctors)
 *(EXCLUDE_FILE(*crtend.o *crtend?.o) .ctors)
 *(SORT(.ctors.*))
 *(.ctors)
 *crtbegin.o(.dtors)
 *crtbegin?.o(.dtors)
 *(EXCLUDE_FILE(*crtend.o *crtend?.o) .dtors)
 *(SORT(.dtors.*))
 *(.dtors)
 *(.rodata*)
 .rodata        0x08012be8        0xc ..\obj\stm32f10x__clock.o
 .rodata        0x08012bf4      0xd00 ..\obj\main.o
                0x08012bf4                ExtCG
                0x08012ef4                FirstScreen
 .rodata.str1.4
                0x080138f4      0x69c ..\obj\main.o
 *(.eh_fram e*)

.glue_7         0x08013f90        0x0
 .glue_7        0x00000000        0x0 linker stubs

.glue_7t        0x08013f90        0x0
 .glue_7t       0x00000000        0x0 linker stubs

.vfp11_veneer   0x08013f90        0x0
 .vfp11_veneer  0x00000000        0x0 linker stubs

.v4_bx          0x08013f90        0x0
 .v4_bx         0x00000000        0x0 linker stubs

.ARM.extab
 *(.ARM.extab* .gnu.linkonce.armextab.*)
                0x08013f90                __exidx_start = .

.ARM.exidx
 *(.ARM.exidx* .gnu.linkonce.armexidx.*)
                0x08013f90                __exidx_end = .
                0x08013f90                __etext = .
                0x08013f90                _sidata = __etext

.data           0x20000000     0x1ffc load address 0x08013f90
                0x20000000                __data_start__ = .
                0x20000000                _sdata = __data_start__
 *(vtable)
 *(.data*)
 .data          0x20000000       0x14 ..\obj\system_stm32f10x.o
                0x20000000                SystemCoreClock
                0x20000004                AHBPrescTable
 .data          0x20000014       0x14 ..\obj\stm32f10x_rcc.o
 .data          0x20000028     0x1fd4 ..\obj\main.o
                0x20000028                NameConst
                0x20000194                NameSensConfig
                0x20000a64                DefStrategy
                0x20000a9c                MechC
                0x2000107c                InitSystems
                0x2000111c                DefControl
                0x2000114c                DefMechanic
                0x20001160                NameOutputConfig
                0x20001750                NameTimer
                0x20001a50                Mon
                0x20001a5c                not
                0x20001a5d                ton
                0x20001a60                DayOfWeek
                0x20001aa8                NameInputConfig
                0x20001b90                NameSystemConfig
                0x20001cdc                NameParUpr
                0x20001fec                mymac
                0x20001ff0                ton_t
                0x20001ff4                DEBUG_Buf2
                0x20001ff8                DEBUG_Buf1
                0x20001ffc                . = ALIGN (0x4)
                0x20001ffc                PROVIDE (__preinit_array_start, .)
 *(.preinit_array)
                0x20001ffc                PROVIDE (__preinit_array_end, .)
                0x20001ffc                . = ALIGN (0x4)
                0x20001ffc                PROVIDE (__init_array_start, .)
 *(SORT(.init_array.*))
 *(.init_array)
                0x20001ffc                PROVIDE (__init_array_end, .)
                0x20001ffc                . = ALIGN (0x4)
                0x20001ffc                PROVIDE (__fini_array_start, .)
 *(SORT(.fini_array.*))
 *(.fini_array)
                0x20001ffc                PROVIDE (__fini_array_end, .)
 *(.jcr*)
                0x20001ffc                . = ALIGN (0x4)
                0x20001ffc                __data_end__ = .
                0x20001ffc                _edata = __data_end__

.bss            0x20001ffc     0xc9d4 load address 0x08015f8c
                0x20001ffc                . = ALIGN (0x4)
                0x20001ffc                __bss_start__ = .
                0x20001ffc                _sbss = __bss_start__
 *(.bss*)
 .bss           0x20001ffc      0x600 ..\obj\main.o
                0x20001ffc                Ad_Buf
                0x20001ffd                AdinB
                0x20001ffe                Form
                0x20001fff                SizeForm
                0x20002000                oldPosition
                0x20002001                Mark
                0x200025f5                payloadlen
                0x200025f6                fcmd_pos
                0x200025f7                ffi
                0x200025f8                SumAnswers
 *(COMMON)
 COMMON         0x200025fc     0x26d3 ..\obj\stm32f10x_RS485Master.o
                0x200025fc                ReadBuf
                0x200029e4                GLF
                0x200029e8                StatusByte
                0x200029ea                GLDir
                0x200029eb                bOutIPCBlock
                0x200029ec                cModule
                0x200029f0                pDataRSOUT
                0x200029f4                PHASE_RS_OUT
                0x200029f8                GLCond
                0x200029fc                RSOutTime
                0x20002a00                ModulData
                0x20004cb0                GLCtr
                0x20004cb2                ncFan
                0x20004cb4                GLSize
                0x20004cb8                HeadOUT
                0x20004cc4                ptrUARTOUT
                0x20004cc8                GLData
                0x20004ccc                cOperInModule
                0x20004ccd                cCycle
                0x20004cce                chSumUARTOUT
 *fill*         0x20004ccf        0x1 00
 COMMON         0x20004cd0       0x97 ..\obj\stm32f10x_RS485.o
                0x20004cd0                chSumUART
                0x20004cd4                pSostRS485
                0x20004cd8                Sockets
                0x20004d3c                RSTime
                0x20004d40                pNumBlock
                0x20004d44                pADRGD
                0x20004d48                ptrUART
                0x20004d4c                fSendByte
                0x20004d50                pNFCtr
                0x20004d54                Head
                0x20004d60                pDataRS
                0x20004d64                fAdrSend
                0x20004d66                PHASE_RS
 *fill*         0x20004d67        0x1 00
 COMMON         0x20004d68     0x9c68 ..\obj\main.o
                0x20004d68                PORTNUM
                0x20004d6c                LngY
                0x20004d70                TecPerRas
                0x20004d74                Y_menu2
                0x20004d76                SaveInt
                0x20004d78                WriteEEP
                0x20004d79                TicVol
                0x20004d7a                ProgReset
                0x20004d7b                B_video
                0x20004d7c                Second
                0x20004d80                pGD_ConstMechanic
                0x20004d84                pGD_ConstMechanic_Mech
                0x20004d88                nSensAreaNow
                0x20004d8a                IntX
                0x20004d8c                nSensor
                0x20004d8e                fLightPause
                0x20004d90                ToLowTime
                0x20004d94                EthBlock
                0x20004d98                nPortD
                0x20004d99                CalPort
                0x20004d9a                Int1Count
                0x20004d9c                PastPerRas
                0x20004da0                NowDayOfWeek
                0x20004da1                nTimer
                0x20004da4                pGD_Strategy_Tepl
                0x20004da8                MACAddr
                0x20004dac                pGD_Hot_Tepl_Kontur
                0x20004db0                bNight
                0x20004db4                pGD_Hot_Tepl
                0x20004db8                FalseIZ
                0x20004dbc                DestSize
                0x20004dc0                pBuf
                0x20004dc4                nInput
                0x20004dc8                MesINT1
                0x20004dcc                nNextProgs
                0x20004dcd                KeyDelay
                0x20004dd0                ipaddr
                0x20004dd4                EthSost
                0x20004dd8                Sec
                0x20004dd9                ByteZ
                0x20004ddc                eCS
                0x20004de0                RegLEV
                0x20004de1                B_input
                0x20004de4                MaximVal
                0x20004de8                GlobData
                0x20004dea                BlkW
                0x20004dec                Int2Count
                0x20004dee                fLightOn
                0x20004df0                IntCount
                0x20004df4                MinimVal
                0x20004df8                MaskRas
                0x20004dfa                IntZ
                0x20004dfc                GD
                0x2000e6c5                TecChan
                0x2000e6c6                NMinPCOut
                0x2000e6c8                plen
                0x2000e6cc                Savebuf
                0x2000e6d0                nSensTeplNow
                0x2000e6d1                nTypeSens
                0x2000e6d2                nSensTeplSave
                0x2000e6d4                pGD_Strategy_Kontur
                0x2000e6d8                nReset
                0x2000e6da                AdrEEP
                0x2000e6dc                NDat
                0x2000e6e0                pGD_TControl_Tepl_Kontur
                0x2000e6e4                ReadyIZ
                0x2000e6e8                BlockEEP
                0x2000e730                ValSize
                0x2000e731                ByteW
                0x2000e734                pGD_Hot_Hand
                0x2000e738                x_menu
                0x2000e73c                teplTmes
                0x2000e79c                nBlEEP
                0x2000e79d                ByteY
                0x2000e7a0                pGD_TControl_Tepl
                0x2000e7a4                SendByte1W
                0x2000e7a8                Rezerv1
                0x2000e7ac                CopyVal
                0x2000e7b0                EndInput
                0x2000e7b4                dat_p
                0x2000e7b8                ByteX
                0x2000e7bc                AdrRAM
                0x2000e7c0                StartY_menu2
                0x2000e7c4                pGD_Level_Tepl
                0x2000e7c8                NowCurRow
                0x2000e7c9                NumBlock
                0x2000e7ca                DemoMode
                0x2000e7cb                SIM
                0x2000e7cc                Rezerv2
                0x2000e7d0                vNFCtr
                0x2000e7d2                SizeEEP
                0x2000e7d4                Volume
                0x2000e7d8                LngX
                0x2000e7dc                IntY
                0x2000e7de                GrafView
                0x2000e7df                nSensTepl
                0x2000e7e0                fcmd
                0x2000e7e1                bSec
                0x2000e7e2                cmdval
                0x2000e7e4                pGD_Hot_Hand_Kontur
                0x2000e7e8                IPAddr
                0x2000e7ec                buf
                0x2000e8e6                nPortSave
                0x2000e8e7                nSensArea
                0x2000e8e8                MesINT0
                0x2000e8ea                nTimer1
                0x2000e8eb                nPort
                0x2000e8ec                Rezerv3
                0x2000e8f0                DestAdr
                0x2000e8f4                StartMenuY
                0x2000e8f5                NewCurRow
                0x2000e8f8                fstr
                0x2000e916                NumIzm
                0x2000e918                MBusy
                0x2000e91c                TimeReset
                0x2000e920                bWaterReset
                0x2000e930                AdrGD
                0x2000e98a                nNextSensor
                0x2000e98c                SaveSample
                0x2000e990                nProgs
                0x2000e991                ToHiTime
                0x2000e994                Buf1W
                0x2000e9a0                pGD_MechConfig_Kontur
                0x2000e9a4                IWDG_Reset
                0x2000e9a8                Int3Count
                0x2000e9aa                SaveChar
                0x2000e9ac                PORTNUMBER
                0x2000e9b0                BITKL
                0x2000e9b1                SumYMenu
                0x2000e9b2                SaveInt2
                0x2000e9b4                Menu
                0x2000e9b5                Y_menu
                0x2000e9b8                AdrVal
                0x2000e9bc                OutR
                0x2000e9c7                nInputD
                0x2000e9c8                pGD_MechConfig
                0x2000e9cc                pGD_Control_Tepl
                0x2000e9d0                . = ALIGN (0x4)
                0x2000e9d0                __bss_end__ = .
                0x2000e9d0                _ebss = __bss_end__

.heap           0x2000e9d0        0x0
                0x2000e9d0                __end__ = .
                0x2000e9d0                _end = __end__
                0x2000e9d0                end = __end__
 *(.heap*)
                0x2000e9d0                __HeapLimit = .

.co_stack       0x2000e9d0      0x400 load address 0x08022960
                0x2000e9d0                . = ALIGN (0x8)
 *(.co_stack .co_stack.*)
 .co_stack      0x2000e9d0      0x400 ..\obj\startup_stm32f10x_cl.o
                0x2000e9d0                pulStack
                0x20010000                __StackTop = (ORIGIN (ram) + 0x10000)
                0x2000fc00                __StackLimit = (__StackTop - SIZEOF (.co_stack))
                0x20010000                PROVIDE (__stack, __StackTop)
                0x00000001                ASSERT ((__StackLimit >= __HeapLimit), region ram  overflowed with stack)
LOAD ..\obj\startup_stm32f10x_cl.o
LOAD ..\obj\stm32f10x_tim.o
LOAD ..\obj\misc.o
LOAD ..\obj\stm32f10x_iwdg.o
LOAD ..\obj\stm32f10x_spi.o
LOAD ..\obj\core_cm3.o
LOAD ..\obj\stm32f10x_RS485Master.o
LOAD ..\obj\stm32f10x_RS485.o
LOAD ..\obj\stm32f10x_usart.o
LOAD ..\obj\stm32f10x_bkp.o
LOAD ..\obj\stm32f10x_pwr.o
LOAD ..\obj\stm32f10x_gpio.o
LOAD ..\obj\system_stm32f10x.o
LOAD ..\obj\stm32f10x_exti.o
LOAD ..\obj\stm32f10x_rcc.o
LOAD ..\obj\I2CSoft.o
LOAD ..\obj\stm32f10x_dma.o
LOAD ..\obj\stm32f10x__clock.o
LOAD ..\obj\stm32f10x_i2c.o
LOAD ..\obj\stm32f10x_rtc.o
LOAD ..\obj\main.o
START GROUP
LOAD c:/program files (x86)/gnu tools arm embedded/4.6 2012q4/bin/../lib/gcc/arm-none-eabi/4.6.2/armv7-m\libgcc.a
LOAD c:/program files (x86)/gnu tools arm embedded/4.6 2012q4/bin/../lib/gcc/arm-none-eabi/4.6.2/../../../../arm-none-eabi/lib/armv7-m\libg.a
LOAD c:/program files (x86)/gnu tools arm embedded/4.6 2012q4/bin/../lib/gcc/arm-none-eabi/4.6.2/../../../../arm-none-eabi/lib/armv7-m\libc.a
END GROUP
OUTPUT(Climat510_AHU.elf elf32-littlearm)

.debug_info     0x00000000    0x121fa
 .debug_info    0x00000000      0x12a ..\obj\startup_stm32f10x_cl.o
 .debug_info    0x0000012a     0x1e2e ..\obj\stm32f10x_tim.o
 .debug_info    0x00001f58      0x544 ..\obj\misc.o
 .debug_info    0x0000249c      0x1f5 ..\obj\stm32f10x_iwdg.o
 .debug_info    0x00002691      0xa26 ..\obj\stm32f10x_spi.o
 .debug_info    0x000030b7      0x547 ..\obj\core_cm3.o
 .debug_info    0x000035fe     0x152a ..\obj\stm32f10x_RS485Master.o
 .debug_info    0x00004b28      0x8d8 ..\obj\stm32f10x_RS485.o
 .debug_info    0x00005400      0xa50 ..\obj\stm32f10x_usart.o
 .debug_info    0x00005e50      0x86c ..\obj\stm32f10x_bkp.o
 .debug_info    0x000066bc      0x46e ..\obj\stm32f10x_pwr.o
 .debug_info    0x00006b2a      0x715 ..\obj\stm32f10x_gpio.o
 .debug_info    0x0000723f      0x524 ..\obj\system_stm32f10x.o
 .debug_info    0x00007763      0x359 ..\obj\stm32f10x_exti.o
 .debug_info    0x00007abc      0xb1a ..\obj\stm32f10x_rcc.o
 .debug_info    0x000085d6      0x443 ..\obj\I2CSoft.o
 .debug_info    0x00008a19      0x491 ..\obj\stm32f10x_dma.o
 .debug_info    0x00008eaa      0x40e ..\obj\stm32f10x__clock.o
 .debug_info    0x000092b8      0xb68 ..\obj\stm32f10x_i2c.o
 .debug_info    0x00009e20      0x466 ..\obj\stm32f10x_rtc.o
 .debug_info    0x0000a286     0x7f74 ..\obj\main.o

.debug_abbrev   0x00000000     0x259c
 .debug_abbrev  0x00000000       0xae ..\obj\startup_stm32f10x_cl.o
 .debug_abbrev  0x000000ae      0x238 ..\obj\stm32f10x_tim.o
 .debug_abbrev  0x000002e6      0x159 ..\obj\misc.o
 .debug_abbrev  0x0000043f      0x107 ..\obj\stm32f10x_iwdg.o
 .debug_abbrev  0x00000546      0x1ae ..\obj\stm32f10x_spi.o
 .debug_abbrev  0x000006f4       0xb2 ..\obj\core_cm3.o
 .debug_abbrev  0x000007a6      0x2ea ..\obj\stm32f10x_RS485Master.o
 .debug_abbrev  0x00000a90      0x1ab ..\obj\stm32f10x_RS485.o
 .debug_abbrev  0x00000c3b      0x1b6 ..\obj\stm32f10x_usart.o
 .debug_abbrev  0x00000df1      0x17a ..\obj\stm32f10x_bkp.o
 .debug_abbrev  0x00000f6b      0x19c ..\obj\stm32f10x_pwr.o
 .debug_abbrev  0x00001107      0x1d7 ..\obj\stm32f10x_gpio.o
 .debug_abbrev  0x000012de      0x1a4 ..\obj\system_stm32f10x.o
 .debug_abbrev  0x00001482      0x16e ..\obj\stm32f10x_exti.o
 .debug_abbrev  0x000015f0      0x1ce ..\obj\stm32f10x_rcc.o
 .debug_abbrev  0x000017be      0x1b8 ..\obj\I2CSoft.o
 .debug_abbrev  0x00001976      0x172 ..\obj\stm32f10x_dma.o
 .debug_abbrev  0x00001ae8      0x204 ..\obj\stm32f10x__clock.o
 .debug_abbrev  0x00001cec      0x192 ..\obj\stm32f10x_i2c.o
 .debug_abbrev  0x00001e7e      0x18a ..\obj\stm32f10x_rtc.o
 .debug_abbrev  0x00002008      0x594 ..\obj\main.o

.debug_loc      0x00000000     0xa71e
 .debug_loc     0x00000000       0x33 ..\obj\startup_stm32f10x_cl.o
 .debug_loc     0x00000033     0x1598 ..\obj\stm32f10x_tim.o
 .debug_loc     0x000015cb      0x143 ..\obj\misc.o
 .debug_loc     0x0000170e       0x3d ..\obj\stm32f10x_iwdg.o
 .debug_loc     0x0000174b      0x511 ..\obj\stm32f10x_spi.o
 .debug_loc     0x00001c5c      0x2ae ..\obj\core_cm3.o
 .debug_loc     0x00001f0a      0xfae ..\obj\stm32f10x_RS485Master.o
 .debug_loc     0x00002eb8      0x19c ..\obj\stm32f10x_RS485.o
 .debug_loc     0x00003054      0x66b ..\obj\stm32f10x_usart.o
 .debug_loc     0x000036bf      0x124 ..\obj\stm32f10x_bkp.o
 .debug_loc     0x000037e3       0xe6 ..\obj\stm32f10x_pwr.o
 .debug_loc     0x000038c9      0x444 ..\obj\stm32f10x_gpio.o
 .debug_loc     0x00003d0d      0x265 ..\obj\system_stm32f10x.o
 .debug_loc     0x00003f72      0x174 ..\obj\stm32f10x_exti.o
 .debug_loc     0x000040e6      0x7b5 ..\obj\stm32f10x_rcc.o
 .debug_loc     0x0000489b      0x2b9 ..\obj\I2CSoft.o
 .debug_loc     0x00004b54      0x142 ..\obj\stm32f10x_dma.o
 .debug_loc     0x00004c96      0x3bd ..\obj\stm32f10x__clock.o
 .debug_loc     0x00005053      0x646 ..\obj\stm32f10x_i2c.o
 .debug_loc     0x00005699      0x1ee ..\obj\stm32f10x_rtc.o
 .debug_loc     0x00005887     0x4e97 ..\obj\main.o

.debug_aranges  0x00000000      0x2a0
 .debug_aranges
                0x00000000       0x20 ..\obj\startup_stm32f10x_cl.o
 .debug_aranges
                0x00000020       0x20 ..\obj\stm32f10x_tim.o
 .debug_aranges
                0x00000040       0x20 ..\obj\misc.o
 .debug_aranges
                0x00000060       0x20 ..\obj\stm32f10x_iwdg.o
 .debug_aranges
                0x00000080       0x20 ..\obj\stm32f10x_spi.o
 .debug_aranges
                0x000000a0       0x20 ..\obj\core_cm3.o
 .debug_aranges
                0x000000c0       0x20 ..\obj\stm32f10x_RS485Master.o
 .debug_aranges
                0x000000e0       0x20 ..\obj\stm32f10x_RS485.o
 .debug_aranges
                0x00000100       0x20 ..\obj\stm32f10x_usart.o
 .debug_aranges
                0x00000120       0x20 ..\obj\stm32f10x_bkp.o
 .debug_aranges
                0x00000140       0x20 ..\obj\stm32f10x_pwr.o
 .debug_aranges
                0x00000160       0x20 ..\obj\stm32f10x_gpio.o
 .debug_aranges
                0x00000180       0x20 ..\obj\system_stm32f10x.o
 .debug_aranges
                0x000001a0       0x20 ..\obj\stm32f10x_exti.o
 .debug_aranges
                0x000001c0       0x20 ..\obj\stm32f10x_rcc.o
 .debug_aranges
                0x000001e0       0x20 ..\obj\I2CSoft.o
 .debug_aranges
                0x00000200       0x20 ..\obj\stm32f10x_dma.o
 .debug_aranges
                0x00000220       0x20 ..\obj\stm32f10x__clock.o
 .debug_aranges
                0x00000240       0x20 ..\obj\stm32f10x_i2c.o
 .debug_aranges
                0x00000260       0x20 ..\obj\stm32f10x_rtc.o
 .debug_aranges
                0x00000280       0x20 ..\obj\main.o

.debug_line     0x00000000     0x5421
 .debug_line    0x00000000       0x81 ..\obj\startup_stm32f10x_cl.o
 .debug_line    0x00000081      0x537 ..\obj\stm32f10x_tim.o
 .debug_line    0x000005b8      0x19f ..\obj\misc.o
 .debug_line    0x00000757      0x16e ..\obj\stm32f10x_iwdg.o
 .debug_line    0x000008c5      0x283 ..\obj\stm32f10x_spi.o
 .debug_line    0x00000b48      0x150 ..\obj\core_cm3.o
 .debug_line    0x00000c98      0x606 ..\obj\stm32f10x_RS485Master.o
 .debug_line    0x0000129e      0x268 ..\obj\stm32f10x_RS485.o
 .debug_line    0x00001506      0x2ad ..\obj\stm32f10x_usart.o
 .debug_line    0x000017b3      0x190 ..\obj\stm32f10x_bkp.o
 .debug_line    0x00001943      0x19f ..\obj\stm32f10x_pwr.o
 .debug_line    0x00001ae2      0x256 ..\obj\stm32f10x_gpio.o
 .debug_line    0x00001d38      0x1bb ..\obj\system_stm32f10x.o
 .debug_line    0x00001ef3      0x1da ..\obj\stm32f10x_exti.o
 .debug_line    0x000020cd      0x2dc ..\obj\stm32f10x_rcc.o
 .debug_line    0x000023a9      0x26a ..\obj\I2CSoft.o
 .debug_line    0x00002613      0x200 ..\obj\stm32f10x_dma.o
 .debug_line    0x00002813      0x233 ..\obj\stm32f10x__clock.o
 .debug_line    0x00002a46      0x2af ..\obj\stm32f10x_i2c.o
 .debug_line    0x00002cf5      0x1b1 ..\obj\stm32f10x_rtc.o
 .debug_line    0x00002ea6     0x257b ..\obj\main.o

.debug_str      0x00000000     0x62d2
 .debug_str     0x00000000       0xee ..\obj\startup_stm32f10x_cl.o
                                0x10d (size before relaxing)
 .debug_str     0x000000ee      0xc82 ..\obj\stm32f10x_tim.o
                                0xd6c (size before relaxing)
 .debug_str     0x00000d70      0x206 ..\obj\misc.o
                                0x352 (size before relaxing)
 .debug_str     0x00000f76       0xd5 ..\obj\stm32f10x_iwdg.o
                                0x1eb (size before relaxing)
 .debug_str     0x0000104b      0x42f ..\obj\stm32f10x_spi.o
                                0x5d9 (size before relaxing)
 .debug_str     0x0000147a      0x15f ..\obj\core_cm3.o
                                0x25b (size before relaxing)
 .debug_str     0x000015d9      0x9ad ..\obj\stm32f10x_RS485Master.o
                                0xbf6 (size before relaxing)
 .debug_str     0x00001f86      0x128 ..\obj\stm32f10x_RS485.o
                                0x8f6 (size before relaxing)
 .debug_str     0x000020ae      0x397 ..\obj\stm32f10x_usart.o
                                0x61f (size before relaxing)
 .debug_str     0x00002445      0x31f ..\obj\stm32f10x_bkp.o
                                0x544 (size before relaxing)
 .debug_str     0x00002764      0x115 ..\obj\stm32f10x_pwr.o
                                0x2a1 (size before relaxing)
 .debug_str     0x00002879      0x23d ..\obj\stm32f10x_gpio.o
                                0x4a8 (size before relaxing)
 .debug_str     0x00002ab6      0x107 ..\obj\system_stm32f10x.o
                                0x2af (size before relaxing)
 .debug_str     0x00002bbd      0x1ba ..\obj\stm32f10x_exti.o
                                0x2ed (size before relaxing)
 .debug_str     0x00002d77      0x476 ..\obj\stm32f10x_rcc.o
                                0x6f1 (size before relaxing)
 .debug_str     0x000031ed       0x9f ..\obj\I2CSoft.o
                                0x2d4 (size before relaxing)
 .debug_str     0x0000328c      0x211 ..\obj\stm32f10x_dma.o
                                0x350 (size before relaxing)
 .debug_str     0x0000349d       0xd6 ..\obj\stm32f10x__clock.o
                                0x1f4 (size before relaxing)
 .debug_str     0x00003573      0x3af ..\obj\stm32f10x_i2c.o
                                0x5f5 (size before relaxing)
 .debug_str     0x00003922      0x17e ..\obj\stm32f10x_rtc.o
                                0x331 (size before relaxing)
 .debug_str     0x00003aa0     0x2832 ..\obj\main.o
                               0x3845 (size before relaxing)

.comment        0x00000000       0x70
 .comment       0x00000000       0x70 ..\obj\startup_stm32f10x_cl.o
                                 0x71 (size before relaxing)
 .comment       0x00000000       0x71 ..\obj\stm32f10x_tim.o
 .comment       0x00000000       0x71 ..\obj\misc.o
 .comment       0x00000000       0x71 ..\obj\stm32f10x_iwdg.o
 .comment       0x00000000       0x71 ..\obj\stm32f10x_spi.o
 .comment       0x00000000       0x71 ..\obj\core_cm3.o
 .comment       0x00000000       0x71 ..\obj\stm32f10x_RS485Master.o
 .comment       0x00000000       0x71 ..\obj\stm32f10x_RS485.o
 .comment       0x00000000       0x71 ..\obj\stm32f10x_usart.o
 .comment       0x00000000       0x71 ..\obj\stm32f10x_bkp.o
 .comment       0x00000000       0x71 ..\obj\stm32f10x_pwr.o
 .comment       0x00000000       0x71 ..\obj\stm32f10x_gpio.o
 .comment       0x00000000       0x71 ..\obj\system_stm32f10x.o
 .comment       0x00000000       0x71 ..\obj\stm32f10x_exti.o
 .comment       0x00000000       0x71 ..\obj\stm32f10x_rcc.o
 .comment       0x00000000       0x71 ..\obj\I2CSoft.o
 .comment       0x00000000       0x71 ..\obj\stm32f10x_dma.o
 .comment       0x00000000       0x71 ..\obj\stm32f10x__clock.o
 .comment       0x00000000       0x71 ..\obj\stm32f10x_i2c.o
 .comment       0x00000000       0x71 ..\obj\stm32f10x_rtc.o
 .comment       0x00000000       0x71 ..\obj\main.o

.ARM.attributes
                0x00000000       0x33
 .ARM.attributes
                0x00000000       0x33 ..\obj\startup_stm32f10x_cl.o
 .ARM.attributes
                0x00000033       0x33 ..\obj\stm32f10x_tim.o
 .ARM.attributes
                0x00000066       0x33 ..\obj\misc.o
 .ARM.attributes
                0x00000099       0x33 ..\obj\stm32f10x_iwdg.o
 .ARM.attributes
                0x000000cc       0x33 ..\obj\stm32f10x_spi.o
 .ARM.attributes
                0x000000ff       0x33 ..\obj\core_cm3.o
 .ARM.attributes
                0x00000132       0x33 ..\obj\stm32f10x_RS485Master.o
 .ARM.attributes
                0x00000165       0x33 ..\obj\stm32f10x_RS485.o
 .ARM.attributes
                0x00000198       0x33 ..\obj\stm32f10x_usart.o
 .ARM.attributes
                0x000001cb       0x33 ..\obj\stm32f10x_bkp.o
 .ARM.attributes
                0x000001fe       0x33 ..\obj\stm32f10x_pwr.o
 .ARM.attributes
                0x00000231       0x33 ..\obj\stm32f10x_gpio.o
 .ARM.attributes
                0x00000264       0x33 ..\obj\system_stm32f10x.o
 .ARM.attributes
                0x00000297       0x33 ..\obj\stm32f10x_exti.o
 .ARM.attributes
                0x000002ca       0x33 ..\obj\stm32f10x_rcc.o
 .ARM.attributes
                0x000002fd       0x33 ..\obj\I2CSoft.o
 .ARM.attributes
                0x00000330       0x33 ..\obj\stm32f10x_dma.o
 .ARM.attributes
                0x00000363       0x33 ..\obj\stm32f10x__clock.o
 .ARM.attributes
                0x00000396       0x33 ..\obj\stm32f10x_i2c.o
 .ARM.attributes
                0x000003c9       0x33 ..\obj\stm32f10x_rtc.o
 .ARM.attributes
                0x000003fc       0x33 ..\obj\main.o
 .ARM.attributes
                0x0000042f       0x1d c:/program files (x86)/gnu tools arm embedded/4.6 2012q4/bin/../lib/gcc/arm-none-eabi/4.6.2/armv7-m\libgcc.a(_arm_addsubdf3.o)
 .ARM.attributes
                0x0000044c       0x1d c:/program files (x86)/gnu tools arm embedded/4.6 2012q4/bin/../lib/gcc/arm-none-eabi/4.6.2/armv7-m\libgcc.a(_arm_muldivdf3.o)
 .ARM.attributes
                0x00000469       0x1d c:/program files (x86)/gnu tools arm embedded/4.6 2012q4/bin/../lib/gcc/arm-none-eabi/4.6.2/armv7-m\libgcc.a(_arm_truncdfsf2.o)
 .ARM.attributes
                0x00000486       0x1d c:/program files (x86)/gnu tools arm embedded/4.6 2012q4/bin/../lib/gcc/arm-none-eabi/4.6.2/armv7-m\libgcc.a(_arm_addsubsf3.o)
 .ARM.attributes
                0x000004a3       0x1d c:/program files (x86)/gnu tools arm embedded/4.6 2012q4/bin/../lib/gcc/arm-none-eabi/4.6.2/armv7-m\libgcc.a(_arm_fixunssfsi.o)

.debug_frame    0x00000000     0x3448
 .debug_frame   0x00000000       0x38 ..\obj\startup_stm32f10x_cl.o
 .debug_frame   0x00000038      0x650 ..\obj\stm32f10x_tim.o
 .debug_frame   0x00000688       0x68 ..\obj\misc.o
 .debug_frame   0x000006f0       0x70 ..\obj\stm32f10x_iwdg.o
 .debug_frame   0x00000760      0x1a8 ..\obj\stm32f10x_spi.o
 .debug_frame   0x00000908      0x170 ..\obj\core_cm3.o
 .debug_frame   0x00000a78      0x2c4 ..\obj\stm32f10x_RS485Master.o
 .debug_frame   0x00000d3c       0x68 ..\obj\stm32f10x_RS485.o
 .debug_frame   0x00000da4      0x20c ..\obj\stm32f10x_usart.o
 .debug_frame   0x00000fb0       0xe0 ..\obj\stm32f10x_bkp.o
 .debug_frame   0x00001090       0xa8 ..\obj\stm32f10x_pwr.o
 .debug_frame   0x00001138      0x168 ..\obj\stm32f10x_gpio.o
 .debug_frame   0x000012a0       0x3c ..\obj\system_stm32f10x.o
 .debug_frame   0x000012dc       0x98 ..\obj\stm32f10x_exti.o
 .debug_frame   0x00001374      0x2b4 ..\obj\stm32f10x_rcc.o
 .debug_frame   0x00001628       0xfc ..\obj\I2CSoft.o
 .debug_frame   0x00001724       0xc8 ..\obj\stm32f10x_dma.o
 .debug_frame   0x000017ec       0x7c ..\obj\stm32f10x__clock.o
 .debug_frame   0x00001868      0x240 ..\obj\stm32f10x_i2c.o
 .debug_frame   0x00001aa8      0x108 ..\obj\stm32f10x_rtc.o
 .debug_frame   0x00001bb0     0x1898 ..\obj\main.o

.debug_ranges   0x00000000       0x30
 .debug_ranges  0x00000000       0x30 ..\obj\main.o
